; Function Attrs: nounwind uwtable
define range(i32 0, 2) i32 @dt_datetime_unix_to_img(ptr noundef writeonly captures(none) initializes((552, 560)) %0, ptr noundef readonly captures(none) %1) local_unnamed_addr #0 {
  %3 = load i64, ptr %1, align 8, !tbaa !71
  %4 = tail call ptr @g_date_time_new_from_unix_local(i64 noundef %3) #7
  %.not = icmp eq ptr %4, null
  br i1 %.not, label %9, label %5

5:                                                ; preds = %2
  %6 = load ptr, ptr getelementptr inbounds nuw (i8, ptr @darktable, i64 3336), align 8, !tbaa !48
  %7 = tail call i64 @g_date_time_difference(ptr noundef nonnull %4, ptr noundef %6) #7
  %8 = getelementptr inbounds nuw i8, ptr %0, i64 552
  store i64 %7, ptr %8, align 8, !tbaa !60
  tail call void @g_date_time_unref(ptr noundef nonnull %4) #7
  br label %11

9:                                                ; preds = %2
  %10 = getelementptr inbounds nuw i8, ptr %0, i64 552
  store i64 0, ptr %10, align 8, !tbaa !60
  br label %11

11:                                               ; preds = %9, %5
  %.0 = phi i32 [ 1, %5 ], [ 0, %9 ]
  ret i32 %.0
}